; Function Attrs: inlinehint nounwind uwtable
define internal fastcc void @agxbputc(ptr noundef captures(none) %0) unnamed_addr #11 {
  %2 = getelementptr i8, ptr %0, i64 31
  %.val.i = load i8, ptr %2, align 1, !tbaa !3
  %.not.i = icmp eq i8 %.val.i, -1
  br i1 %.not.i, label %agxbsizeof.exit, label %agxbsizeof.exit.thread

agxbsizeof.exit:                                  ; preds = %1
  %3 = getelementptr inbounds nuw i8, ptr %0, i64 8
  %4 = load i64, ptr %3, align 8, !tbaa !3
  %5 = getelementptr inbounds nuw i8, ptr %0, i64 16
  %6 = load i64, ptr %5, align 8, !tbaa !3
  %.fr.i = freeze i64 %6
  %.not = icmp ult i64 %4, %.fr.i
  br i1 %.not, label %._crit_edge, label %agxbsizeof.exit.i

agxbsizeof.exit.thread:                           ; preds = %1
  %.not25 = icmp ult i8 %.val.i, 31
  br i1 %.not25, label %.thread35, label %.thread

agxbsizeof.exit.i:                                ; preds = %agxbsizeof.exit
  %7 = icmp eq i64 %.fr.i, 0
  %8 = shl i64 %.fr.i, 1
  %spec.select46.i = select i1 %7, i64 8192, i64 %8
  %9 = add i64 %.fr.i, 1
  %spec.select34.i = tail call i64 @llvm.umax.i64(i64 %9, i64 %spec.select46.i)
  %10 = load ptr, ptr %0, align 8, !tbaa !3
  %11 = icmp eq i64 %spec.select34.i, 0
  br i1 %11, label %12, label %13

12:                                               ; preds = %agxbsizeof.exit.i
  tail call void @free(ptr noundef %10) #16
  br label %.thread26

13:                                               ; preds = %agxbsizeof.exit.i
  %14 = tail call ptr @realloc(ptr noundef %10, i64 noundef %spec.select34.i) #21
  %15 = icmp eq ptr %14, null
  br i1 %15, label %16, label %19

16:                                               ; preds = %13
  %17 = load ptr, ptr @stderr, align 8, !tbaa !8
  %18 = tail call i32 (ptr, ptr, ...) @fprintf(ptr noundef %17, ptr noundef nonnull @.str.9, i64 noundef %spec.select34.i) #19
  tail call fastcc void @graphviz_exit() #20
  unreachable

19:                                               ; preds = %13
  %20 = icmp ugt i64 %spec.select34.i, %.fr.i
  br i1 %20, label %21, label %.thread26

21:                                               ; preds = %19
  %22 = getelementptr inbounds nuw i8, ptr %14, i64 %.fr.i
  %23 = sub nuw i64 %spec.select34.i, %.fr.i
  tail call void @llvm.memset.p0.i64(ptr nonnull align 1 %22, i8 0, i64 %23, i1 false)
  br label %.thread26

.thread:                                          ; preds = %agxbsizeof.exit.thread
  %24 = tail call noalias dereferenceable_or_null(62) ptr @calloc(i64 noundef 62, i64 noundef 1) #18
  %25 = icmp eq ptr %24, null
  br i1 %25, label %26, label %gv_calloc.exit.i

26:                                               ; preds = %.thread
  %27 = load ptr, ptr @stderr, align 8, !tbaa !8
  %28 = tail call i32 (ptr, ptr, ...) @fprintf(ptr noundef %27, ptr noundef nonnull @.str.9, i64 noundef 62) #19
  tail call fastcc void @graphviz_exit() #20
  unreachable

gv_calloc.exit.i:                                 ; preds = %.thread
  %29 = zext i8 %.val.i to i64
  tail call void @llvm.memcpy.p0.p0.i64(ptr nonnull align 1 %24, ptr nonnull align 8 %0, i64 %29, i1 false)
  %30 = getelementptr inbounds nuw i8, ptr %0, i64 8
  store i64 %29, ptr %30, align 8, !tbaa !3
  br label %.thread26

.thread26:                                        ; preds = %gv_calloc.exit.i, %21, %19, %12
  %spec.select3742.i = phi i64 [ 62, %gv_calloc.exit.i ], [ 0, %12 ], [ %spec.select34.i, %19 ], [ %spec.select34.i, %21 ]
  %.0.i15 = phi ptr [ %24, %gv_calloc.exit.i ], [ null, %12 ], [ %14, %19 ], [ %14, %21 ]
  store ptr %.0.i15, ptr %0, align 8, !tbaa !3
  %31 = getelementptr inbounds nuw i8, ptr %0, i64 16
  store i64 %spec.select3742.i, ptr %31, align 8, !tbaa !3
  store i8 -1, ptr %2, align 1, !tbaa !3
  %.phi.trans.insert = getelementptr inbounds nuw i8, ptr %0, i64 8
  %.pre = load i64, ptr %.phi.trans.insert, align 8, !tbaa !3
  br label %36

._crit_edge:                                      ; preds = %agxbsizeof.exit
  %.pre39 = load ptr, ptr %0, align 8, !tbaa !3
  br label %36

.thread35:                                        ; preds = %agxbsizeof.exit.thread
  %32 = zext nneg i8 %.val.i to i64
  %33 = getelementptr inbounds nuw [31 x i8], ptr %0, i64 0, i64 %32
  store i8 0, ptr %33, align 1, !tbaa !3
  %34 = load i8, ptr %2, align 1, !tbaa !3
  %35 = add i8 %34, 1
  store i8 %35, ptr %2, align 1, !tbaa !3
  br label %43

36:                                               ; preds = %._crit_edge, %.thread26
  %37 = phi ptr [ %.0.i15, %.thread26 ], [ %.pre39, %._crit_edge ]
  %38 = phi i64 [ %.pre, %.thread26 ], [ %4, %._crit_edge ]
  %39 = getelementptr inbounds nuw i8, ptr %0, i64 8
  %40 = getelementptr inbounds nuw i8, ptr %37, i64 %38
  store i8 0, ptr %40, align 1, !tbaa !3
  %41 = load i64, ptr %39, align 8, !tbaa !3
  %42 = add i64 %41, 1
  store i64 %42, ptr %39, align 8, !tbaa !3
  br label %43

43:                                               ; preds = %36, %.thread35
  ret void
}